target datalayout = "e-m:e-p270:32:32-p271:32:32-p272:64:64-i64:64-i128:128-f80:128-n8:16:32:64-S128"
target triple = "x86_64-pc-linux-gnu"

%struct.RewriteStateData = type { ptr, ptr, ptr, ptr, i32, i8, i32, i32, i32, i32, ptr, i64, ptr, ptr, ptr, i32 }
%struct.UnresolvedTupData = type { %struct.TidHashKey, %struct.ItemPointerData, ptr }
%struct.TidHashKey = type { i32, %struct.ItemPointerData }
%struct.ItemPointerData = type { %struct.BlockIdData, i16 }
%struct.BlockIdData = type { i16, i16 }
%struct.HeapTupleData = type { i32, %struct.ItemPointerData, i32, ptr }
%struct.HeapTupleHeaderData = type { %union.anon, %struct.ItemPointerData, i16, i16, i8, [0 x i8] }
%union.anon = type { %struct.HeapTupleFields }
%struct.HeapTupleFields = type { i32, i32, %union.anon.0 }
%union.anon.0 = type { i32 }

; Function Attrs: inlinehint nounwind uwtable
define internal i32 @HeapTupleHeaderGetRawXmin(ptr noundef %0) #3 {
  %2 = alloca ptr, align 8
  store ptr %0, ptr %2, align 8
  %3 = load ptr, ptr %2, align 8
  %4 = getelementptr inbounds nuw %struct.HeapTupleHeaderData, ptr %3, i32 0, i32 0
  %5 = getelementptr inbounds nuw %struct.HeapTupleFields, ptr %4, i32 0, i32 0
  %6 = load i32, ptr %5, align 4
  ret i32 %6
}

; Function Attrs: inlinehint nounwind uwtable
define internal zeroext i1 @HeapTupleHeaderXminFrozen(ptr noundef %0) #3 {
  %2 = alloca ptr, align 8
  store ptr %0, ptr %2, align 8
  %3 = load ptr, ptr %2, align 8
  %4 = getelementptr inbounds nuw %struct.HeapTupleHeaderData, ptr %3, i32 0, i32 3
  %5 = load i16, ptr %4, align 4
  %6 = zext i16 %5 to i32
  %7 = and i32 %6, 768
  %8 = icmp eq i32 %7, 768
  ret i1 %8
}

; Function Attrs: inlinehint nounwind uwtable
define internal i32 @HeapTupleHeaderGetXmin(ptr noundef %0) #3 {
  %2 = alloca ptr, align 8
  store ptr %0, ptr %2, align 8
  %3 = load ptr, ptr %2, align 8
  %4 = call zeroext i1 @HeapTupleHeaderXminFrozen(ptr noundef %3)
  br i1 %4, label %5, label %6

5:                                                ; preds = %1
  br label %9

6:                                                ; preds = %1
  %7 = load ptr, ptr %2, align 8
  %8 = call i32 @HeapTupleHeaderGetRawXmin(ptr noundef %7)
  br label %9

9:                                                ; preds = %6, %5
  %10 = phi i32 [ 2, %5 ], [ %8, %6 ]
  ret i32 %10
}

; Function Attrs: nounwind uwtable
define dso_local zeroext i1 @rewrite_heap_dead_tuple(ptr noundef %0, ptr noundef %1) #0 {
  %3 = alloca i1, align 1
  %4 = alloca ptr, align 8
  %5 = alloca ptr, align 8
  %6 = alloca ptr, align 8
  %7 = alloca %struct.TidHashKey, align 4
  %8 = alloca i8, align 1
  %9 = alloca i32, align 4
  store ptr %0, ptr %4, align 8
  store ptr %1, ptr %5, align 8
  call void @llvm.lifetime.start.p0(i64 8, ptr %6) #10
  call void @llvm.lifetime.start.p0(i64 12, ptr %7) #10
  call void @llvm.lifetime.start.p0(i64 1, ptr %8) #10
  call void @llvm.memset.p0.i64(ptr align 4 %7, i8 0, i64 12, i1 false)
  %10 = load ptr, ptr %5, align 8
  %11 = getelementptr inbounds nuw %struct.HeapTupleData, ptr %10, i32 0, i32 3
  %12 = load ptr, ptr %11, align 8
  %13 = call i32 @HeapTupleHeaderGetXmin(ptr noundef %12)
  %14 = getelementptr inbounds nuw %struct.TidHashKey, ptr %7, i32 0, i32 0
  store i32 %13, ptr %14, align 4
  %15 = getelementptr inbounds nuw %struct.TidHashKey, ptr %7, i32 0, i32 1
  %16 = load ptr, ptr %5, align 8
  %17 = getelementptr inbounds nuw %struct.HeapTupleData, ptr %16, i32 0, i32 1
  call void @llvm.memcpy.p0.p0.i64(ptr align 4 %15, ptr align 4 %17, i64 6, i1 false)
  %18 = load ptr, ptr %4, align 8
  %19 = getelementptr inbounds nuw %struct.RewriteStateData, ptr %18, i32 0, i32 12
  %20 = load ptr, ptr %19, align 8
  %21 = call ptr @hash_search(ptr noundef %20, ptr noundef %7, i32 noundef 0, ptr noundef null)
  store ptr %21, ptr %6, align 8
  %22 = load ptr, ptr %6, align 8
  %23 = icmp ne ptr %22, null
  br i1 %23, label %24, label %32

24:                                               ; preds = %2
  %25 = load ptr, ptr %6, align 8
  %26 = getelementptr inbounds nuw %struct.UnresolvedTupData, ptr %25, i32 0, i32 2
  %27 = load ptr, ptr %26, align 8
  call void @heap_freetuple(ptr noundef %27)
  %28 = load ptr, ptr %4, align 8
  %29 = getelementptr inbounds nuw %struct.RewriteStateData, ptr %28, i32 0, i32 12
  %30 = load ptr, ptr %29, align 8
  %31 = call ptr @hash_search(ptr noundef %30, ptr noundef %7, i32 noundef 2, ptr noundef %8)
  store i1 true, ptr %3, align 1
  store i32 1, ptr %9, align 4
  br label %33

32:                                               ; preds = %2
  store i1 false, ptr %3, align 1
  store i32 1, ptr %9, align 4
  br label %33

33:                                               ; preds = %32, %24
  call void @llvm.lifetime.end.p0(i64 1, ptr %8) #10
  call void @llvm.lifetime.end.p0(i64 12, ptr %7) #10
  call void @llvm.lifetime.end.p0(i64 8, ptr %6) #10
  %34 = load i1, ptr %3, align 1
  ret i1 %34
}