; Function Attrs: nounwind uwtable
define dso_local noundef zeroext i1 @rewrite_heap_dead_tuple(ptr noundef readonly captures(none) %0, ptr noundef readonly captures(none) %1) local_unnamed_addr #0 {
  %3 = alloca %struct.TidHashKey, align 4
  %4 = alloca i8, align 1
  call void @llvm.lifetime.start.p0(i64 12, ptr nonnull %3) #13
  call void @llvm.lifetime.start.p0(i64 1, ptr nonnull %4) #13
  %5 = getelementptr inbounds nuw i8, ptr %3, i64 8
  store i32 0, ptr %5, align 4
  %6 = getelementptr inbounds nuw i8, ptr %1, i64 16
  %7 = load ptr, ptr %6, align 8
  %8 = getelementptr i8, ptr %7, i64 20
  %.val.i = load i16, ptr %8, align 4
  %9 = and i16 %.val.i, 768
  %10 = icmp eq i16 %9, 768
  br i1 %10, label %HeapTupleHeaderGetXmin.exit, label %11

11:                                               ; preds = %2
  %.val2.i = load i32, ptr %7, align 4
  br label %HeapTupleHeaderGetXmin.exit

HeapTupleHeaderGetXmin.exit:                      ; preds = %2, %11
  %12 = phi i32 [ %.val2.i, %11 ], [ 2, %2 ]
  store i32 %12, ptr %3, align 4
  %13 = getelementptr inbounds nuw i8, ptr %3, i64 4
  %14 = getelementptr inbounds nuw i8, ptr %1, i64 4
  call void @llvm.memcpy.p0.p0.i64(ptr noundef nonnull align 4 dereferenceable(6) %13, ptr noundef nonnull align 4 dereferenceable(6) %14, i64 6, i1 false)
  %15 = getelementptr inbounds nuw i8, ptr %0, i64 72
  %16 = load ptr, ptr %15, align 8
  %17 = call ptr @hash_search(ptr noundef %16, ptr noundef nonnull %3, i32 noundef 0, ptr noundef null) #13
  %.not = icmp ne ptr %17, null
  br i1 %.not, label %18, label %23

18:                                               ; preds = %HeapTupleHeaderGetXmin.exit
  %19 = getelementptr inbounds nuw i8, ptr %17, i64 24
  %20 = load ptr, ptr %19, align 8
  call void @heap_freetuple(ptr noundef %20) #13
  %21 = load ptr, ptr %15, align 8
  %22 = call ptr @hash_search(ptr noundef %21, ptr noundef nonnull %3, i32 noundef 2, ptr noundef nonnull %4) #13
  br label %23

23:                                               ; preds = %HeapTupleHeaderGetXmin.exit, %18
  call void @llvm.lifetime.end.p0(i64 1, ptr nonnull %4) #13
  call void @llvm.lifetime.end.p0(i64 12, ptr nonnull %3) #13
  ret i1 %.not
}